
hello.elf:     file format elf32-littleriscv
architecture: riscv:rv32, flags 0x00000112:
EXEC_P, HAS_SYMS, D_PAGED
start address 0x00000000


Disassembly of section .text:

00000000 <_start>:
   0:	00002537          	lui	a0,0x2
   4:	71050513          	addi	a0,a0,1808 # 2710 <list+0x2664>
   8:	00050113          	mv	sp,a0
   c:	054000ef          	jal	ra,60 <notmain>

00000010 <hang>:
  10:	0000006f          	j	10 <hang>

00000014 <bubbleSort>:
  14:	01300593          	li	a1,19
  18:	0ac00813          	li	a6,172
  1c:	00000713          	li	a4,0
  20:	00080793          	mv	a5,a6
  24:	00000513          	li	a0,0
  28:	02b75463          	bge	a4,a1,50 <bubbleSort+0x3c>
  2c:	0007a683          	lw	a3,0(a5)
  30:	0047a603          	lw	a2,4(a5)
  34:	00170713          	addi	a4,a4,1
  38:	00d65863          	bge	a2,a3,48 <bubbleSort+0x34>
  3c:	00c7a023          	sw	a2,0(a5)
  40:	00d7a223          	sw	a3,4(a5)
  44:	00100513          	li	a0,1
  48:	00478793          	addi	a5,a5,4
  4c:	feb740e3          	blt	a4,a1,2c <bubbleSort+0x18>
  50:	00050663          	beqz	a0,5c <bubbleSort+0x48>
  54:	fff58593          	addi	a1,a1,-1
  58:	fc0592e3          	bnez	a1,1c <bubbleSort+0x8>
  5c:	00008067          	ret

00000060 <notmain>:
  60:	01300593          	li	a1,19
  64:	0ac00813          	li	a6,172
  68:	00000713          	li	a4,0
  6c:	00080793          	mv	a5,a6
  70:	00000513          	li	a0,0
  74:	02b75463          	bge	a4,a1,9c <notmain+0x3c>
  78:	0007a683          	lw	a3,0(a5)
  7c:	0047a603          	lw	a2,4(a5)
  80:	00170713          	addi	a4,a4,1
  84:	00d65863          	bge	a2,a3,94 <notmain+0x34>
  88:	00c7a023          	sw	a2,0(a5)
  8c:	00d7a223          	sw	a3,4(a5)
  90:	00100513          	li	a0,1
  94:	00478793          	addi	a5,a5,4
  98:	feb740e3          	blt	a4,a1,78 <notmain+0x18>
  9c:	00050663          	beqz	a0,a8 <notmain+0x48>
  a0:	fff58593          	addi	a1,a1,-1
  a4:	fc0592e3          	bnez	a1,68 <notmain+0x8>
  a8:	00008067          	ret
