
notmain.elf:     file format elf32-littleriscv
architecture: riscv:rv32, flags 0x00000112:
EXEC_P, HAS_SYMS, D_PAGED
start address 0x00000000


Disassembly of section .text:

00000000 <_start>:
   0:	00002537          	lui	a0,0x2
   4:	71050513          	addi	a0,a0,1808 # 2710 <array+0x2668>
   8:	00050113          	mv	sp,a0
   c:	05c000ef          	jal	ra,68 <notmain>

00000010 <hang>:
  10:	0000006f          	j	10 <hang>

00000014 <insertionSort>:
  14:	00259893          	slli	a7,a1,0x2
  18:	00100793          	li	a5,1
  1c:	00450813          	addi	a6,a0,4
  20:	011508b3          	add	a7,a0,a7
  24:	04b7d063          	bge	a5,a1,64 <insertionSort+0x50>
  28:	00082683          	lw	a3,0(a6)
  2c:	ffc82703          	lw	a4,-4(a6)
  30:	00080613          	mv	a2,a6
  34:	02e6d263          	bge	a3,a4,58 <insertionSort+0x44>
  38:	ffc80793          	addi	a5,a6,-4
  3c:	0100006f          	j	4c <insertionSort+0x38>
  40:	ffc78793          	addi	a5,a5,-4
  44:	0007a703          	lw	a4,0(a5)
  48:	00e6d863          	bge	a3,a4,58 <insertionSort+0x44>
  4c:	00e7a223          	sw	a4,4(a5)
  50:	00078613          	mv	a2,a5
  54:	fef516e3          	bne	a0,a5,40 <insertionSort+0x2c>
  58:	00d62023          	sw	a3,0(a2)
  5c:	00480813          	addi	a6,a6,4
  60:	fd0894e3          	bne	a7,a6,28 <insertionSort+0x14>
  64:	00008067          	ret

00000068 <notmain>:
  68:	0a800793          	li	a5,168
  6c:	00478713          	addi	a4,a5,4
  70:	19078813          	addi	a6,a5,400
  74:	00072583          	lw	a1,0(a4)
  78:	00070693          	mv	a3,a4
  7c:	ffc6a503          	lw	a0,-4(a3)
  80:	00068613          	mv	a2,a3
  84:	00a5da63          	bge	a1,a0,98 <notmain+0x30>
  88:	00a6a023          	sw	a0,0(a3)
  8c:	ffc60693          	addi	a3,a2,-4
  90:	fed796e3          	bne	a5,a3,7c <notmain+0x14>
  94:	00078613          	mv	a2,a5
  98:	00b62023          	sw	a1,0(a2)
  9c:	00470713          	addi	a4,a4,4
  a0:	fce81ae3          	bne	a6,a4,74 <notmain+0xc>
  a4:	00008067          	ret
